; Function Attrs: nounwind sspstrong uwtable
define internal i64 @rb_hash_slice(i32 noundef %0, ptr noundef readonly captures(none) %1, i64 noundef %2) #0 {
  %4 = icmp eq i32 %0, 0
  %.pre = inttoptr i64 %2 to ptr
  br i1 %4, label %._crit_edge, label %5

5:                                                ; preds = %3
  %6 = load i64, ptr %.pre, align 8, !tbaa !11
  %7 = and i64 %6, 32768
  %.not.i.i.i = icmp eq i64 %7, 0
  br i1 %.not.i.i.i, label %8, label %11

8:                                                ; preds = %5
  %9 = lshr i64 %6, 16
  %10 = and i64 %9, 15
  br label %RHASH_EMPTY_P.exit

11:                                               ; preds = %5
  %12 = add i64 %2, 24
  %13 = inttoptr i64 %12 to ptr
  %14 = getelementptr inbounds nuw i8, ptr %13, i64 16
  %15 = load i64, ptr %14, align 8, !tbaa !49
  br label %RHASH_EMPTY_P.exit

RHASH_EMPTY_P.exit:                               ; preds = %8, %11
  %.0.i.i = phi i64 [ %10, %8 ], [ %15, %11 ]
  %16 = icmp eq i64 %.0.i.i, 0
  br i1 %16, label %._crit_edge, label %32

._crit_edge:                                      ; preds = %3, %RHASH_EMPTY_P.exit
  %17 = load i64, ptr @rb_cHash, align 8, !tbaa !7
  %18 = tail call align 8 ptr @llvm.threadlocal.address.p0(ptr align 8 @ruby_current_ec)
  %19 = load ptr, ptr %18, align 8, !tbaa !24
  %20 = tail call i64 @rb_wb_protected_newobj_of(ptr noundef %19, i64 noundef %17, i64 noundef 8, i64 noundef 160) #28
  %21 = inttoptr i64 %20 to ptr
  %22 = getelementptr inbounds nuw i8, ptr %21, i64 16
  store i64 4, ptr %22, align 8, !tbaa !7
  %23 = load i64, ptr %.pre, align 8, !tbaa !11
  %24 = and i64 %23, 32768
  %.not.i.i.i19 = icmp eq i64 %24, 0
  br i1 %.not.i.i.i19, label %copy_compare_by_id.exit, label %25

25:                                               ; preds = %._crit_edge
  %26 = add i64 %2, 24
  %27 = inttoptr i64 %26 to ptr
  %28 = getelementptr inbounds nuw i8, ptr %27, i64 8
  %29 = load ptr, ptr %28, align 8, !tbaa !66
  %30 = icmp eq ptr %29, @rb_hashtype_ident
  br i1 %30, label %rb_hash_compare_by_id_p.exit.i, label %copy_compare_by_id.exit

rb_hash_compare_by_id_p.exit.i:                   ; preds = %25
  %31 = tail call i64 @rb_hash_compare_by_id(i64 noundef %20)
  br label %copy_compare_by_id.exit

32:                                               ; preds = %RHASH_EMPTY_P.exit
  %33 = icmp ugt i32 %0, 8
  %34 = load i64, ptr @rb_cHash, align 8, !tbaa !7
  %35 = select i1 %33, i64 80, i64 160
  %36 = tail call align 8 ptr @llvm.threadlocal.address.p0(ptr align 8 @ruby_current_ec)
  %37 = load ptr, ptr %36, align 8, !tbaa !24
  %38 = tail call i64 @rb_wb_protected_newobj_of(ptr noundef %37, i64 noundef %34, i64 noundef 8, i64 noundef %35) #28
  %39 = inttoptr i64 %38 to ptr
  %40 = getelementptr inbounds nuw i8, ptr %39, i64 16
  store i64 4, ptr %40, align 8, !tbaa !7
  br i1 %33, label %41, label %rb_hash_new_with_size.exit

41:                                               ; preds = %32
  %42 = sext i32 %0 to i64
  %43 = add i64 %38, 24
  %44 = inttoptr i64 %43 to ptr
  %45 = tail call ptr @rb_st_init_existing_table_with_size(ptr noundef nonnull %44, ptr noundef nonnull @objhash, i64 noundef %42) #28
  %46 = load i64, ptr %39, align 8, !tbaa !11
  %47 = or i64 %46, 32768
  store i64 %47, ptr %39, align 8, !tbaa !11
  br label %rb_hash_new_with_size.exit

rb_hash_new_with_size.exit:                       ; preds = %32, %41
  %48 = load i64, ptr %.pre, align 8, !tbaa !11
  %49 = and i64 %48, 32768
  %.not.i.i.i20 = icmp eq i64 %49, 0
  br i1 %.not.i.i.i20, label %copy_compare_by_id.exit22, label %50

50:                                               ; preds = %rb_hash_new_with_size.exit
  %51 = add i64 %2, 24
  %52 = inttoptr i64 %51 to ptr
  %53 = getelementptr inbounds nuw i8, ptr %52, i64 8
  %54 = load ptr, ptr %53, align 8, !tbaa !66
  %55 = icmp eq ptr %54, @rb_hashtype_ident
  br i1 %55, label %rb_hash_compare_by_id_p.exit.i21, label %copy_compare_by_id.exit22

rb_hash_compare_by_id_p.exit.i21:                 ; preds = %50
  %56 = tail call i64 @rb_hash_compare_by_id(i64 noundef %38)
  br label %copy_compare_by_id.exit22

copy_compare_by_id.exit22:                        ; preds = %rb_hash_new_with_size.exit, %50, %rb_hash_compare_by_id_p.exit.i21
  %57 = icmp sgt i32 %0, 0
  br i1 %57, label %.lr.ph.preheader, label %copy_compare_by_id.exit

.lr.ph.preheader:                                 ; preds = %copy_compare_by_id.exit22
  %wide.trip.count = zext nneg i32 %0 to i64
  br label %.lr.ph

.lr.ph:                                           ; preds = %.lr.ph.preheader, %64
  %indvars.iv = phi i64 [ 0, %.lr.ph.preheader ], [ %indvars.iv.next, %64 ]
  %58 = getelementptr i64, ptr %1, i64 %indvars.iv
  %59 = load i64, ptr %58, align 8, !tbaa !7
  %60 = tail call i64 @rb_hash_lookup2(i64 noundef %2, i64 noundef %59, i64 noundef 36)
  %61 = icmp eq i64 %60, 36
  br i1 %61, label %64, label %62

62:                                               ; preds = %.lr.ph
  %63 = tail call i64 @rb_hash_aset(i64 noundef %38, i64 noundef %59, i64 noundef %60)
  br label %64

64:                                               ; preds = %.lr.ph, %62
  %indvars.iv.next = add nuw nsw i64 %indvars.iv, 1
  %exitcond.not = icmp eq i64 %indvars.iv.next, %wide.trip.count
  br i1 %exitcond.not, label %copy_compare_by_id.exit, label %.lr.ph, !llvm.loop !111

copy_compare_by_id.exit:                          ; preds = %64, %copy_compare_by_id.exit22, %rb_hash_compare_by_id_p.exit.i, %25, %._crit_edge
  %.0 = phi i64 [ %20, %._crit_edge ], [ %20, %25 ], [ %20, %rb_hash_compare_by_id_p.exit.i ], [ %38, %copy_compare_by_id.exit22 ], [ %38, %64 ]
  ret i64 %.0
}